target datalayout = "e-m:e-p270:32:32-p271:32:32-p272:64:64-i64:64-i128:128-f80:128-n8:16:32:64-S128"
target triple = "x86_64-pc-linux-gnu"

@__const.stbhw__draw_clipped_corner.template_color = private unnamed_addr constant [3 x i8] c"\A7\CC\CC", align 1

; Function Attrs: nounwind uwtable
define void @stbhw__set_pixel(ptr noundef %0, i32 noundef %1, i32 noundef %2, i32 noundef %3, ptr noundef %4) #0 {
  %6 = alloca ptr, align 8
  %7 = alloca i32, align 4
  %8 = alloca i32, align 4
  %9 = alloca i32, align 4
  %10 = alloca ptr, align 8
  store ptr %0, ptr %6, align 8, !tbaa !3
  store i32 %1, ptr %7, align 4, !tbaa !10
  store i32 %2, ptr %8, align 4, !tbaa !10
  store i32 %3, ptr %9, align 4, !tbaa !10
  store ptr %4, ptr %10, align 8, !tbaa !3
  %11 = load ptr, ptr %6, align 8, !tbaa !3
  %12 = load i32, ptr %9, align 4, !tbaa !10
  %13 = load i32, ptr %7, align 4, !tbaa !10
  %14 = mul nsw i32 %12, %13
  %15 = sext i32 %14 to i64
  %16 = getelementptr inbounds i8, ptr %11, i64 %15
  %17 = load i32, ptr %8, align 4, !tbaa !10
  %18 = mul nsw i32 %17, 3
  %19 = sext i32 %18 to i64
  %20 = getelementptr inbounds i8, ptr %16, i64 %19
  %21 = load ptr, ptr %10, align 8, !tbaa !3
  call void @llvm.memcpy.p0.p0.i64(ptr align 1 %20, ptr align 1 %21, i64 3, i1 false)
  ret void
}

; Function Attrs: nounwind uwtable
define void @stbhw__draw_clipped_corner(ptr noundef %0, i32 noundef %1, i32 noundef %2, i32 noundef %3, i32 noundef %4, i32 noundef %5, i32 noundef %6, i32 noundef %7) #0 {
  %9 = alloca ptr, align 8
  %10 = alloca i32, align 4
  %11 = alloca i32, align 4
  %12 = alloca i32, align 4
  %13 = alloca i32, align 4
  %14 = alloca i32, align 4
  %15 = alloca i32, align 4
  %16 = alloca i32, align 4
  %17 = alloca [3 x i8], align 1
  %18 = alloca i32, align 4
  %19 = alloca i32, align 4
  store ptr %0, ptr %9, align 8, !tbaa !3
  store i32 %1, ptr %10, align 4, !tbaa !10
  store i32 %2, ptr %11, align 4, !tbaa !10
  store i32 %3, ptr %12, align 4, !tbaa !10
  store i32 %4, ptr %13, align 4, !tbaa !10
  store i32 %5, ptr %14, align 4, !tbaa !10
  store i32 %6, ptr %15, align 4, !tbaa !10
  store i32 %7, ptr %16, align 4, !tbaa !10
  call void @llvm.lifetime.start.p0(i64 3, ptr %17) #6
  call void @llvm.memcpy.p0.p0.i64(ptr align 1 %17, ptr align 1 @__const.stbhw__draw_clipped_corner.template_color, i64 3, i1 false)
  call void @llvm.lifetime.start.p0(i64 4, ptr %18) #6
  call void @llvm.lifetime.start.p0(i64 4, ptr %19) #6
  store i32 -2, ptr %19, align 4, !tbaa !10
  br label %20

20:                                               ; preds = %83, %8
  %21 = load i32, ptr %19, align 4, !tbaa !10
  %22 = icmp sle i32 %21, 1
  br i1 %22, label %23, label %86

23:                                               ; preds = %20
  store i32 -2, ptr %18, align 4, !tbaa !10
  br label %24

24:                                               ; preds = %79, %23
  %25 = load i32, ptr %18, align 4, !tbaa !10
  %26 = icmp sle i32 %25, 1
  br i1 %26, label %27, label %82

27:                                               ; preds = %24
  %28 = load i32, ptr %18, align 4, !tbaa !10
  %29 = icmp eq i32 %28, -2
  br i1 %29, label %33, label %30

30:                                               ; preds = %27
  %31 = load i32, ptr %18, align 4, !tbaa !10
  %32 = icmp eq i32 %31, 1
  br i1 %32, label %33, label %40

33:                                               ; preds = %30, %27
  %34 = load i32, ptr %19, align 4, !tbaa !10
  %35 = icmp eq i32 %34, -2
  br i1 %35, label %39, label %36

36:                                               ; preds = %33
  %37 = load i32, ptr %19, align 4, !tbaa !10
  %38 = icmp eq i32 %37, 1
  br i1 %38, label %39, label %40

39:                                               ; preds = %36, %33
  br label %79

40:                                               ; preds = %36, %30
  %41 = load i32, ptr %15, align 4, !tbaa !10
  %42 = load i32, ptr %18, align 4, !tbaa !10
  %43 = add nsw i32 %41, %42
  %44 = icmp slt i32 %43, 1
  br i1 %44, label %51, label %45

45:                                               ; preds = %40
  %46 = load i32, ptr %15, align 4, !tbaa !10
  %47 = load i32, ptr %18, align 4, !tbaa !10
  %48 = add nsw i32 %46, %47
  %49 = load i32, ptr %13, align 4, !tbaa !10
  %50 = icmp sgt i32 %48, %49
  br i1 %50, label %51, label %52

51:                                               ; preds = %45, %40
  br label %79

52:                                               ; preds = %45
  %53 = load i32, ptr %16, align 4, !tbaa !10
  %54 = load i32, ptr %19, align 4, !tbaa !10
  %55 = add nsw i32 %53, %54
  %56 = icmp slt i32 %55, 1
  br i1 %56, label %63, label %57

57:                                               ; preds = %52
  %58 = load i32, ptr %16, align 4, !tbaa !10
  %59 = load i32, ptr %19, align 4, !tbaa !10
  %60 = add nsw i32 %58, %59
  %61 = load i32, ptr %14, align 4, !tbaa !10
  %62 = icmp sgt i32 %60, %61
  br i1 %62, label %63, label %64

63:                                               ; preds = %57, %52
  br label %79

64:                                               ; preds = %57
  %65 = load ptr, ptr %9, align 8, !tbaa !3
  %66 = load i32, ptr %10, align 4, !tbaa !10
  %67 = load i32, ptr %11, align 4, !tbaa !10
  %68 = load i32, ptr %15, align 4, !tbaa !10
  %69 = add nsw i32 %67, %68
  %70 = load i32, ptr %18, align 4, !tbaa !10
  %71 = add nsw i32 %69, %70
  %72 = load i32, ptr %12, align 4, !tbaa !10
  %73 = load i32, ptr %16, align 4, !tbaa !10
  %74 = add nsw i32 %72, %73
  %75 = load i32, ptr %19, align 4, !tbaa !10
  %76 = add nsw i32 %74, %75
  %77 = getelementptr inbounds [3 x i8], ptr %17, i64 0, i64 0
  call void @stbhw__set_pixel(ptr noundef %65, i32 noundef %66, i32 noundef %71, i32 noundef %76, ptr noundef %77)
  br label %78

78:                                               ; preds = %64
  br label %79

79:                                               ; preds = %78, %63, %51, %39
  %80 = load i32, ptr %18, align 4, !tbaa !10
  %81 = add nsw i32 %80, 1
  store i32 %81, ptr %18, align 4, !tbaa !10
  br label %24, !llvm.loop !111

82:                                               ; preds = %24
  br label %83

83:                                               ; preds = %82
  %84 = load i32, ptr %19, align 4, !tbaa !10
  %85 = add nsw i32 %84, 1
  store i32 %85, ptr %19, align 4, !tbaa !10
  br label %20, !llvm.loop !112

86:                                               ; preds = %20
  call void @llvm.lifetime.end.p0(i64 4, ptr %19) #6
  call void @llvm.lifetime.end.p0(i64 4, ptr %18) #6
  call void @llvm.lifetime.end.p0(i64 3, ptr %17) #6
  ret void
}