; Function Attrs: nofree norecurse nosync nounwind memory(argmem: readwrite) uwtable
define void @stbhw__draw_clipped_corner(ptr noundef writeonly captures(none) %0, i32 noundef %1, i32 noundef %2, i32 noundef %3, i32 noundef %4, i32 noundef %5, i32 noundef %6, i32 noundef %7) local_unnamed_addr #6 {
  %9 = add nsw i32 %6, %2
  %10 = add nsw i32 %7, %3
  %11 = sext i32 %6 to i64
  %12 = sext i32 %4 to i64
  %13 = sext i32 %9 to i64
  %14 = sext i32 %7 to i64
  %15 = sext i32 %5 to i64
  %16 = sext i32 %10 to i64
  %17 = sext i32 %1 to i64
  br label %.preheader

.preheader:                                       ; preds = %8, %.split.us
  %indvars.iv45 = phi i64 [ -2, %8 ], [ %indvars.iv.next46, %.split.us ]
  %18 = add nsw i64 %indvars.iv45, %14
  %19 = icmp slt i64 %18, 1
  %20 = icmp sgt i64 %18, %15
  %or.cond31 = or i1 %19, %20
  %21 = add nsw i64 %indvars.iv45, %16
  %22 = mul nsw i64 %21, %17
  %23 = getelementptr inbounds i8, ptr %0, i64 %22
  %or.cond31.fr = freeze i1 %or.cond31
  br i1 %or.cond31.fr, label %.split.us, label %.preheader.split

.preheader.split:                                 ; preds = %.preheader
  %24 = trunc nsw i64 %indvars.iv45 to i32
  switch i32 %24, label %.preheader.split.split [
    i32 -2, label %.preheader.split.split.us.preheader
    i32 1, label %.preheader.split.split.us.preheader
  ]

.preheader.split.split.us.preheader:              ; preds = %.preheader.split, %.preheader.split
  br label %.preheader.split.split.us

.preheader.split.split.us:                        ; preds = %.preheader.split.split.us.preheader, %34
  %indvars.iv = phi i64 [ %indvars.iv.next, %34 ], [ -2, %.preheader.split.split.us.preheader ]
  %25 = trunc nsw i64 %indvars.iv to i32
  switch i32 %25, label %26 [
    i32 -2, label %34
    i32 1, label %34
  ]

26:                                               ; preds = %.preheader.split.split.us
  %27 = add nsw i64 %indvars.iv, %11
  %28 = icmp slt i64 %27, 1
  %29 = icmp sgt i64 %27, %12
  %or.cond.us34 = or i1 %28, %29
  br i1 %or.cond.us34, label %34, label %30

30:                                               ; preds = %26
  %31 = add nsw i64 %indvars.iv, %13
  %32 = mul nsw i64 %31, 3
  %33 = getelementptr inbounds i8, ptr %23, i64 %32
  tail call void @llvm.memcpy.p0.p0.i64(ptr noundef nonnull align 1 dereferenceable(3) %33, ptr noundef nonnull readonly align 1 dereferenceable(3) @__const.stbhw__draw_clipped_corner.template_color, i64 3, i1 false)
  br label %34

34:                                               ; preds = %.preheader.split.split.us, %.preheader.split.split.us, %30, %26
  %indvars.iv.next = add nsw i64 %indvars.iv, 1
  %exitcond.not = icmp eq i64 %indvars.iv.next, 2
  br i1 %exitcond.not, label %.split.us, label %.preheader.split.split.us, !llvm.loop !107

.preheader.split.split:                           ; preds = %.preheader.split, %42
  %indvars.iv41 = phi i64 [ %indvars.iv.next42, %42 ], [ -2, %.preheader.split ]
  %35 = add nsw i64 %indvars.iv41, %11
  %36 = icmp slt i64 %35, 1
  %37 = icmp sgt i64 %35, %12
  %or.cond = or i1 %36, %37
  br i1 %or.cond, label %42, label %38

38:                                               ; preds = %.preheader.split.split
  %39 = add nsw i64 %indvars.iv41, %13
  %40 = mul nsw i64 %39, 3
  %41 = getelementptr inbounds i8, ptr %23, i64 %40
  tail call void @llvm.memcpy.p0.p0.i64(ptr noundef nonnull align 1 dereferenceable(3) %41, ptr noundef nonnull readonly align 1 dereferenceable(3) @__const.stbhw__draw_clipped_corner.template_color, i64 3, i1 false)
  br label %42

42:                                               ; preds = %.preheader.split.split, %38
  %indvars.iv.next42 = add nsw i64 %indvars.iv41, 1
  %exitcond44.not = icmp eq i64 %indvars.iv.next42, 2
  br i1 %exitcond44.not, label %.split.us, label %.preheader.split.split, !llvm.loop !107

.split.us:                                        ; preds = %34, %42, %.preheader
  %indvars.iv.next46 = add nsw i64 %indvars.iv45, 1
  %exitcond48.not = icmp eq i64 %indvars.iv.next46, 2
  br i1 %exitcond48.not, label %43, label %.preheader, !llvm.loop !108

43:                                               ; preds = %.split.us
  ret void
}